target datalayout = "e-m:e-p270:32:32-p271:32:32-p272:64:64-i64:64-i128:128-f80:128-n8:16:32:64-S128"
target triple = "x86_64-pc-linux-gnu"

%struct._GtkTreeIter = type { i32, ptr, ptr, ptr }
%struct.sview_job_info_t = type { i32, %struct._GtkTreeIter, i8, i32, ptr, ptr, i32, ptr, i32, ptr, ptr, ptr, ptr, ptr, ptr, ptr }
%struct.job_info = type { ptr, i64, ptr, ptr, i32, ptr, i32, i32, i32, ptr, i32, ptr, i16, ptr, i64, i16, ptr, ptr, ptr, ptr, ptr, ptr, ptr, ptr, i16, i16, i16, double, i16, i32, i32, i32, ptr, ptr, i64, i32, ptr, i32, i64, i64, ptr, ptr, i32, ptr, ptr, ptr, ptr, i64, ptr, i64, ptr, i32, ptr, ptr, i32, i32, ptr, i32, i32, ptr, ptr, i32, i64, ptr, i16, ptr, i32, i32, ptr, ptr, ptr, ptr, ptr, i32, ptr, i16, i16, i16, i16, i16, i32, i32, i32, i16, ptr, ptr, i64, i16, i32, i64, i64, i64, i32, ptr, ptr, i32, ptr, i8, ptr, ptr, i32, i16, i64, i16, ptr, ptr, ptr, ptr, i16, i32, i16, i16, i64, i16, ptr, i32, ptr, ptr, ptr, i16, i64, i64, ptr, i32, i32, i16, ptr, ptr, ptr, ptr, ptr, ptr, ptr, ptr, i32, ptr, i32, ptr, ptr }
%struct.job_step_info_t = type { i32, i32, ptr, ptr, ptr, i32, i32, i32, ptr, ptr, ptr, ptr, ptr, ptr, i32, i32, ptr, ptr, i64, ptr, i32, i64, i16, i32, %struct.slurm_step_id_msg, ptr, i32, i32, ptr, ptr, ptr, ptr, ptr, ptr, ptr, i32 }
%struct.slurm_step_id_msg = type { i64, i32, i32, i32 }

; Function Attrs: nounwind uwtable
define internal void @_append_step_record(ptr noundef %0, ptr noundef %1, ptr noundef %2, i32 noundef %3, i1 noundef zeroext %4) #0 {
  %6 = alloca ptr, align 8
  %7 = alloca ptr, align 8
  %8 = alloca ptr, align 8
  %9 = alloca i32, align 4
  %10 = alloca i8, align 1
  %11 = alloca %struct._GtkTreeIter, align 8
  store ptr %0, ptr %6, align 8
  store ptr %1, ptr %7, align 8
  store ptr %2, ptr %8, align 8
  store i32 %3, ptr %9, align 4
  %12 = zext i1 %4 to i8
  store i8 %12, ptr %10, align 1
  call void @llvm.lifetime.start.p0(i64 32, ptr %11) #11
  %13 = load ptr, ptr %7, align 8
  %14 = load ptr, ptr %8, align 8
  call void @gtk_tree_store_append(ptr noundef %13, ptr noundef %11, ptr noundef %14)
  %15 = load ptr, ptr %7, align 8
  %16 = load i32, ptr %9, align 4
  call void (ptr, ptr, ...) @gtk_tree_store_set(ptr noundef %15, ptr noundef %11, i32 noundef 0, i32 noundef %16, i32 noundef -1)
  %17 = load ptr, ptr %6, align 8
  %18 = load ptr, ptr %7, align 8
  %19 = load i8, ptr %10, align 1, !range !18, !noundef !19
  %20 = trunc i8 %19 to i1
  call void @_update_step_record(ptr noundef %17, ptr noundef %18, ptr noundef %11, i1 noundef zeroext %20)
  call void @llvm.lifetime.end.p0(i64 32, ptr %11) #11
  ret void
}

; Function Attrs: inlinehint nounwind willreturn memory(read) uwtable
define available_externally i32 @atoi(ptr noundef nonnull %0) #7 {
  %2 = alloca ptr, align 8
  store ptr %0, ptr %2, align 8
  %3 = load ptr, ptr %2, align 8
  %4 = call i64 @strtol(ptr noundef %3, ptr noundef null, i32 noundef 10) #11
  %5 = trunc i64 %4 to i32
  ret i32 %5
}

; Function Attrs: nounwind uwtable
define internal void @_update_info_step(ptr noundef %0, ptr noundef %1, ptr noundef %2, ptr noundef %3) #0 {
  %5 = alloca ptr, align 8
  %6 = alloca ptr, align 8
  %7 = alloca ptr, align 8
  %8 = alloca ptr, align 8
  %9 = alloca i32, align 4
  %10 = alloca i32, align 4
  %11 = alloca %struct._GtkTreeIter, align 8
  %12 = alloca i32, align 4
  %13 = alloca ptr, align 8
  %14 = alloca ptr, align 8
  %15 = alloca ptr, align 8
  %16 = alloca i32, align 4
  store ptr %0, ptr %5, align 8
  store ptr %1, ptr %6, align 8
  store ptr %2, ptr %7, align 8
  store ptr %3, ptr %8, align 8
  call void @llvm.lifetime.start.p0(i64 4, ptr %9) #11
  store i32 0, ptr %9, align 4
  call void @llvm.lifetime.start.p0(i64 4, ptr %10) #11
  call void @llvm.lifetime.start.p0(i64 32, ptr %11) #11
  call void @llvm.lifetime.start.p0(i64 4, ptr %12) #11
  store i32 0, ptr %12, align 4
  call void @llvm.lifetime.start.p0(i64 8, ptr %13) #11
  store ptr null, ptr %13, align 8
  call void @llvm.lifetime.start.p0(i64 8, ptr %14) #11
  store ptr null, ptr %14, align 8
  call void @llvm.memset.p0.i64(ptr align 8 %11, i8 0, i64 32, i1 false)
  %17 = load ptr, ptr %7, align 8
  %18 = icmp ne ptr %17, null
  br i1 %18, label %19, label %35

19:                                               ; preds = %4
  %20 = load ptr, ptr %7, align 8
  call void @llvm.memcpy.p0.p0.i64(ptr align 8 %11, ptr align 8 %20, i64 32, i1 false)
  br label %21

21:                                               ; preds = %32, %19
  br label %22

22:                                               ; preds = %21
  %23 = load ptr, ptr %6, align 8
  %24 = call i64 @gtk_tree_store_get_type() #12
  %25 = call ptr @g_type_check_instance_cast(ptr noundef %23, i64 noundef %24)
  %26 = load ptr, ptr %7, align 8
  call void (ptr, ptr, ...) @gtk_tree_store_set(ptr noundef %25, ptr noundef %26, i32 noundef 91, i32 noundef 0, i32 noundef -1)
  %27 = load ptr, ptr %6, align 8
  %28 = load ptr, ptr %7, align 8
  %29 = call i32 @gtk_tree_model_iter_next(ptr noundef %27, ptr noundef %28)
  %30 = icmp ne i32 %29, 0
  br i1 %30, label %32, label %31

31:                                               ; preds = %22
  br label %33

32:                                               ; preds = %22
  br label %21, !llvm.loop !42

33:                                               ; preds = %31
  %34 = load ptr, ptr %7, align 8
  call void @llvm.memcpy.p0.p0.i64(ptr align 8 %34, ptr align 8 %11, i64 32, i1 false)
  store i32 1, ptr %12, align 4
  br label %35

35:                                               ; preds = %33, %4
  %36 = load ptr, ptr %5, align 8
  %37 = getelementptr inbounds nuw %struct.sview_job_info_t, ptr %36, i32 0, i32 9
  %38 = load ptr, ptr %37, align 8
  %39 = call ptr @list_iterator_create(ptr noundef %38)
  store ptr %39, ptr %13, align 8
  br label %40

40:                                               ; preds = %106, %35
  %41 = load ptr, ptr %13, align 8
  %42 = call ptr @list_next(ptr noundef %41)
  store ptr %42, ptr %14, align 8
  %43 = icmp ne ptr %42, null
  br i1 %43, label %44, label %107

44:                                               ; preds = %40
  %45 = load ptr, ptr %7, align 8
  %46 = icmp ne ptr %45, null
  br i1 %46, label %48, label %47

47:                                               ; preds = %44
  br label %88

48:                                               ; preds = %44
  %49 = load ptr, ptr %7, align 8
  call void @llvm.memcpy.p0.p0.i64(ptr align 8 %49, ptr align 8 %11, i64 32, i1 false)
  br label %50

50:                                               ; preds = %48
  br label %51

51:                                               ; preds = %86, %50
  br label %52

52:                                               ; preds = %51
  call void @llvm.lifetime.start.p0(i64 8, ptr %15) #11
  %53 = load ptr, ptr %6, align 8
  %54 = load ptr, ptr %7, align 8
  call void (ptr, ptr, ...) @gtk_tree_model_get(ptr noundef %53, ptr noundef %54, i32 noundef 36, ptr noundef %15, i32 noundef -1)
  %55 = load ptr, ptr %15, align 8
  %56 = call i32 @atoi(ptr noundef %55) #14
  store i32 %56, ptr %9, align 4
  %57 = load ptr, ptr %15, align 8
  call void @g_free(ptr noundef %57)
  %58 = load i32, ptr %9, align 4
  %59 = load ptr, ptr %14, align 8
  %60 = getelementptr inbounds nuw %struct.job_step_info_t, ptr %59, i32 0, i32 24
  %61 = getelementptr inbounds nuw %struct.slurm_step_id_msg, ptr %60, i32 0, i32 3
  %62 = load i32, ptr %61, align 8
  %63 = icmp eq i32 %58, %62
  br i1 %63, label %64, label %77

64:                                               ; preds = %52
  %65 = load ptr, ptr %14, align 8
  %66 = load ptr, ptr %6, align 8
  %67 = call i64 @gtk_tree_store_get_type() #12
  %68 = call ptr @g_type_check_instance_cast(ptr noundef %66, i64 noundef %67)
  %69 = load ptr, ptr %7, align 8
  %70 = load ptr, ptr %5, align 8
  %71 = getelementptr inbounds nuw %struct.sview_job_info_t, ptr %70, i32 0, i32 5
  %72 = load ptr, ptr %71, align 8
  %73 = getelementptr inbounds nuw %struct.job_info, ptr %72, i32 0, i32 61
  %74 = load i32, ptr %73, align 8
  %75 = and i32 %74, 255
  %76 = icmp eq i32 %75, 2
  call void @_update_step_record(ptr noundef %65, ptr noundef %68, ptr noundef %69, i1 noundef zeroext %76)
  store i32 9, ptr %16, align 4
  br label %84

77:                                               ; preds = %52
  %78 = load ptr, ptr %6, align 8
  %79 = load ptr, ptr %7, align 8
  %80 = call i32 @gtk_tree_model_iter_next(ptr noundef %78, ptr noundef %79)
  %81 = icmp ne i32 %80, 0
  br i1 %81, label %83, label %82

82:                                               ; preds = %77
  store ptr null, ptr %7, align 8
  store i32 8, ptr %16, align 4
  br label %84

83:                                               ; preds = %77
  store i32 0, ptr %16, align 4
  br label %84

84:                                               ; preds = %64, %83, %82
  call void @llvm.lifetime.end.p0(i64 8, ptr %15) #11
  %85 = load i32, ptr %16, align 4
  switch i32 %85, label %136 [
    i32 0, label %86
    i32 8, label %87
    i32 9, label %106
  ]

86:                                               ; preds = %84
  br label %51, !llvm.loop !43

87:                                               ; preds = %84
  br label %88

88:                                               ; preds = %87, %47
  %89 = load ptr, ptr %14, align 8
  %90 = load ptr, ptr %6, align 8
  %91 = call i64 @gtk_tree_store_get_type() #12
  %92 = call ptr @g_type_check_instance_cast(ptr noundef %90, i64 noundef %91)
  %93 = load ptr, ptr %8, align 8
  %94 = load ptr, ptr %5, align 8
  %95 = getelementptr inbounds nuw %struct.sview_job_info_t, ptr %94, i32 0, i32 5
  %96 = load ptr, ptr %95, align 8
  %97 = getelementptr inbounds nuw %struct.job_info, ptr %96, i32 0, i32 58
  %98 = load i32, ptr %97, align 4
  %99 = load ptr, ptr %5, align 8
  %100 = getelementptr inbounds nuw %struct.sview_job_info_t, ptr %99, i32 0, i32 5
  %101 = load ptr, ptr %100, align 8
  %102 = getelementptr inbounds nuw %struct.job_info, ptr %101, i32 0, i32 61
  %103 = load i32, ptr %102, align 8
  %104 = and i32 %103, 255
  %105 = icmp eq i32 %104, 2
  call void @_append_step_record(ptr noundef %89, ptr noundef %92, ptr noundef %93, i32 noundef %98, i1 noundef zeroext %105)
  br label %106

106:                                              ; preds = %88, %84
  br label %40, !llvm.loop !44

107:                                              ; preds = %40
  %108 = load ptr, ptr %13, align 8
  call void @list_iterator_destroy(ptr noundef %108)
  %109 = load i32, ptr %12, align 4
  %110 = icmp ne i32 %109, 0
  br i1 %110, label %111, label %135

111:                                              ; preds = %107
  store ptr %11, ptr %7, align 8
  br label %112

112:                                              ; preds = %133, %126, %111
  br label %113

113:                                              ; preds = %112
  %114 = load ptr, ptr %6, align 8
  %115 = load ptr, ptr %7, align 8
  call void (ptr, ptr, ...) @gtk_tree_model_get(ptr noundef %114, ptr noundef %115, i32 noundef 91, ptr noundef %10, i32 noundef -1)
  %116 = load i32, ptr %10, align 4
  %117 = icmp ne i32 %116, 0
  br i1 %117, label %127, label %118

118:                                              ; preds = %113
  %119 = load ptr, ptr %6, align 8
  %120 = call i64 @gtk_tree_store_get_type() #12
  %121 = call ptr @g_type_check_instance_cast(ptr noundef %119, i64 noundef %120)
  %122 = load ptr, ptr %7, align 8
  %123 = call i32 @gtk_tree_store_remove(ptr noundef %121, ptr noundef %122)
  %124 = icmp ne i32 %123, 0
  br i1 %124, label %126, label %125

125:                                              ; preds = %118
  br label %134

126:                                              ; preds = %118
  br label %112, !llvm.loop !45

127:                                              ; preds = %113
  %128 = load ptr, ptr %6, align 8
  %129 = load ptr, ptr %7, align 8
  %130 = call i32 @gtk_tree_model_iter_next(ptr noundef %128, ptr noundef %129)
  %131 = icmp ne i32 %130, 0
  br i1 %131, label %133, label %132

132:                                              ; preds = %127
  br label %134

133:                                              ; preds = %127
  br label %112, !llvm.loop !45

134:                                              ; preds = %132, %125
  br label %135

135:                                              ; preds = %134, %107
  store i32 1, ptr %16, align 4
  br label %136

136:                                              ; preds = %135, %84
  call void @llvm.lifetime.end.p0(i64 8, ptr %14) #11
  call void @llvm.lifetime.end.p0(i64 8, ptr %13) #11
  call void @llvm.lifetime.end.p0(i64 4, ptr %12) #11
  call void @llvm.lifetime.end.p0(i64 32, ptr %11) #11
  call void @llvm.lifetime.end.p0(i64 4, ptr %10) #11
  call void @llvm.lifetime.end.p0(i64 4, ptr %9) #11
  ret void
}