; Function Attrs: nounwind uwtable
define internal fastcc void @_update_info_step(ptr noundef nonnull readonly captures(none) %0, ptr noundef %1, ptr noundef %2, ptr noundef nonnull %3) unnamed_addr #0 {
  %5 = alloca %struct._GtkTreeIter, align 8
  %6 = alloca i32, align 4
  %7 = alloca %struct._GtkTreeIter, align 8
  %8 = alloca ptr, align 8
  call void @llvm.lifetime.start.p0(i64 4, ptr nonnull %6) #16
  call void @llvm.lifetime.start.p0(i64 32, ptr nonnull %7) #16
  call void @llvm.memset.p0.i64(ptr noundef nonnull align 8 dereferenceable(32) %7, i8 0, i64 32, i1 false)
  %.not = icmp eq ptr %2, null
  br i1 %.not, label %15, label %9

9:                                                ; preds = %4
  call void @llvm.memcpy.p0.p0.i64(ptr noundef nonnull align 8 dereferenceable(32) %7, ptr noundef nonnull align 8 dereferenceable(32) %2, i64 32, i1 false)
  %10 = tail call i64 @gtk_tree_store_get_type() #17
  br label %11

11:                                               ; preds = %11, %9
  %12 = tail call ptr @g_type_check_instance_cast(ptr noundef %1, i64 noundef %10) #16
  tail call void (ptr, ptr, ...) @gtk_tree_store_set(ptr noundef %12, ptr noundef nonnull %2, i32 noundef 91, i32 noundef 0, i32 noundef -1) #16
  %13 = tail call i32 @gtk_tree_model_iter_next(ptr noundef %1, ptr noundef nonnull %2) #16
  %.not38 = icmp eq i32 %13, 0
  br i1 %.not38, label %14, label %11, !llvm.loop !48

14:                                               ; preds = %11
  call void @llvm.memcpy.p0.p0.i64(ptr noundef nonnull align 8 dereferenceable(32) %2, ptr noundef nonnull align 8 dereferenceable(32) %7, i64 32, i1 false)
  br label %15

15:                                               ; preds = %14, %4
  %16 = getelementptr inbounds nuw i8, ptr %0, i64 88
  %17 = load ptr, ptr %16, align 8
  %18 = tail call ptr @list_iterator_create(ptr noundef %17) #16
  %19 = tail call ptr @list_next(ptr noundef %18) #16
  %.not3951 = icmp eq ptr %19, null
  br i1 %.not3951, label %._crit_edge, label %.lr.ph53

.lr.ph53:                                         ; preds = %15
  %20 = getelementptr inbounds nuw i8, ptr %0, i64 56
  br label %21

21:                                               ; preds = %.lr.ph53, %53
  %22 = phi ptr [ %19, %.lr.ph53 ], [ %54, %53 ]
  %.03552 = phi ptr [ %2, %.lr.ph53 ], [ %.4, %53 ]
  %.not44 = icmp eq ptr %.03552, null
  br i1 %.not44, label %.thread, label %23

23:                                               ; preds = %21
  call void @llvm.memcpy.p0.p0.i64(ptr noundef nonnull align 8 dereferenceable(32) %.03552, ptr noundef nonnull align 8 dereferenceable(32) %7, i64 32, i1 false)
  call void @llvm.lifetime.start.p0(i64 8, ptr nonnull %8) #16
  call void (ptr, ptr, ...) @gtk_tree_model_get(ptr noundef %1, ptr noundef nonnull %.03552, i32 noundef 36, ptr noundef nonnull %8, i32 noundef -1) #16
  %24 = load ptr, ptr %8, align 8
  %25 = call i64 @strtol(ptr noundef nonnull captures(none) %24, ptr noundef null, i32 noundef 10) #16
  %26 = trunc i64 %25 to i32
  call void @g_free(ptr noundef nonnull %24) #16
  %27 = getelementptr inbounds nuw i8, ptr %22, i64 176
  %28 = load i32, ptr %27, align 8
  %29 = icmp eq i32 %28, %26
  br i1 %29, label %.thread48, label %.lr.ph

.thread48:                                        ; preds = %38, %23
  %30 = tail call i64 @gtk_tree_store_get_type() #17
  %31 = call ptr @g_type_check_instance_cast(ptr noundef %1, i64 noundef %30) #16
  %32 = load ptr, ptr %20, align 8
  %33 = getelementptr inbounds nuw i8, ptr %32, i64 432
  %34 = load i32, ptr %33, align 8
  %35 = and i32 %34, 255
  %36 = icmp eq i32 %35, 2
  call fastcc void @_update_step_record(ptr noundef %22, ptr noundef %31, ptr noundef nonnull %.03552, i1 noundef zeroext %36)
  call void @llvm.lifetime.end.p0(i64 8, ptr nonnull %8) #16
  br label %53

.lr.ph:                                           ; preds = %23, %38
  %37 = call i32 @gtk_tree_model_iter_next(ptr noundef %1, ptr noundef nonnull %.03552) #16
  %.not45 = icmp eq i32 %37, 0
  call void @llvm.lifetime.end.p0(i64 8, ptr nonnull %8) #16
  br i1 %.not45, label %.thread, label %38

38:                                               ; preds = %.lr.ph
  call void @llvm.lifetime.start.p0(i64 8, ptr nonnull %8) #16
  call void (ptr, ptr, ...) @gtk_tree_model_get(ptr noundef %1, ptr noundef nonnull %.03552, i32 noundef 36, ptr noundef nonnull %8, i32 noundef -1) #16
  %39 = load ptr, ptr %8, align 8
  %40 = call i64 @strtol(ptr noundef nonnull captures(none) %39, ptr noundef null, i32 noundef 10) #16
  %41 = trunc i64 %40 to i32
  call void @g_free(ptr noundef nonnull %39) #16
  %42 = load i32, ptr %27, align 8
  %43 = icmp eq i32 %42, %41
  br i1 %43, label %.thread48, label %.lr.ph

.thread:                                          ; preds = %.lr.ph, %21
  %44 = tail call i64 @gtk_tree_store_get_type() #17
  %45 = call ptr @g_type_check_instance_cast(ptr noundef %1, i64 noundef %44) #16
  %46 = load ptr, ptr %20, align 8
  %47 = getelementptr inbounds nuw i8, ptr %46, i64 412
  %48 = load i32, ptr %47, align 4
  %49 = getelementptr inbounds nuw i8, ptr %46, i64 432
  %50 = load i32, ptr %49, align 8
  %51 = and i32 %50, 255
  %52 = icmp eq i32 %51, 2
  call void @llvm.lifetime.start.p0(i64 32, ptr nonnull %5) #16
  call void @gtk_tree_store_append(ptr noundef %45, ptr noundef nonnull %5, ptr noundef nonnull %3) #16
  call void (ptr, ptr, ...) @gtk_tree_store_set(ptr noundef %45, ptr noundef nonnull %5, i32 noundef 0, i32 noundef %48, i32 noundef -1) #16
  call fastcc void @_update_step_record(ptr noundef nonnull %22, ptr noundef %45, ptr noundef nonnull %5, i1 noundef zeroext %52)
  call void @llvm.lifetime.end.p0(i64 32, ptr nonnull %5) #16
  br label %53

53:                                               ; preds = %.thread48, %.thread
  %.4 = phi ptr [ null, %.thread ], [ %.03552, %.thread48 ]
  %54 = call ptr @list_next(ptr noundef %18) #16
  %.not39 = icmp eq ptr %54, null
  br i1 %.not39, label %._crit_edge, label %21, !llvm.loop !49

._crit_edge:                                      ; preds = %53, %15
  call void @list_iterator_destroy(ptr noundef %18) #16
  br i1 %.not, label %.loopexit, label %.preheader

.preheader:                                       ; preds = %._crit_edge, %.preheader.backedge
  call void (ptr, ptr, ...) @gtk_tree_model_get(ptr noundef %1, ptr noundef nonnull %7, i32 noundef 91, ptr noundef nonnull %6, i32 noundef -1) #16
  %55 = load i32, ptr %6, align 4
  %.not41 = icmp eq i32 %55, 0
  br i1 %.not41, label %56, label %60

56:                                               ; preds = %.preheader
  %57 = tail call i64 @gtk_tree_store_get_type() #17
  %58 = call ptr @g_type_check_instance_cast(ptr noundef %1, i64 noundef %57) #16
  %59 = call i32 @gtk_tree_store_remove(ptr noundef %58, ptr noundef nonnull %7) #16
  %.not42 = icmp eq i32 %59, 0
  br i1 %.not42, label %.loopexit, label %.preheader.backedge

.preheader.backedge:                              ; preds = %56, %60
  br label %.preheader, !llvm.loop !50

60:                                               ; preds = %.preheader
  %61 = call i32 @gtk_tree_model_iter_next(ptr noundef %1, ptr noundef nonnull %7) #16
  %.not43 = icmp eq i32 %61, 0
  br i1 %.not43, label %.loopexit, label %.preheader.backedge

.loopexit:                                        ; preds = %60, %56, %._crit_edge
  call void @llvm.lifetime.end.p0(i64 32, ptr nonnull %7) #16
  call void @llvm.lifetime.end.p0(i64 4, ptr nonnull %6) #16
  ret void
}